target datalayout = "e-m:e-p270:32:32-p271:32:32-p272:64:64-i64:64-i128:128-f80:128-n8:16:32:64-S128"
target triple = "x86_64-pc-linux-gnu"

%struct.XIEventMask = type { i32, i32, ptr }
%struct.SDL_VideoDevice = type { ptr, ptr, ptr, ptr, ptr, ptr, ptr, ptr, ptr, ptr, ptr, ptr, ptr, ptr, ptr, ptr, ptr, ptr, ptr, ptr, ptr, ptr, ptr, ptr, ptr, ptr, ptr, ptr, ptr, ptr, ptr, ptr, ptr, ptr, ptr, ptr, ptr, ptr, ptr, ptr, ptr, ptr, ptr, ptr, ptr, ptr, ptr, ptr, ptr, ptr, ptr, ptr, ptr, ptr, ptr, ptr, ptr, ptr, ptr, ptr, ptr, ptr, ptr, ptr, ptr, ptr, ptr, ptr, ptr, ptr, ptr, ptr, ptr, ptr, ptr, ptr, ptr, ptr, ptr, ptr, ptr, ptr, ptr, ptr, ptr, ptr, ptr, ptr, ptr, ptr, ptr, ptr, ptr, ptr, ptr, ptr, ptr, i64, i8, i8, i8, ptr, i32, ptr, %struct.SDL_Rect, ptr, ptr, i32, ptr, ptr, ptr, ptr, i64, ptr, i8, i32, i32, %struct.anon, ptr, ptr, ptr, ptr, ptr, ptr, %struct.SDL_AtomicInt, %struct.SDL_AtomicInt, i8, %struct.anon.0, ptr, ptr, ptr, ptr, ptr }
%struct.SDL_Rect = type { i32, i32, i32, i32 }
%struct.anon = type { i32, i32, i32, i32, i32, i32, i32, i32, i32, i32, i32, i32, i32, i32, i32, i32, i32, i32, i32, i32, i32, i32, i32, i32, i32, i32, i32, i32, i32, [256 x i8], ptr }
%struct.SDL_AtomicInt = type { i32 }
%struct.anon.0 = type { ptr, ptr, i32, [256 x i8], ptr }
%struct.SDL_VideoData = type { ptr, ptr, i32, ptr, i64, i32, ptr, i32, i64, i64, %struct.X11_ClipboardData, %struct.X11_ClipboardData, ptr, i64, %struct.X11_SettingsData, i8, %struct.anon.1, [256 x i32], i8, i8, i8, i64, i8, %struct.SDL_Point, i32, ptr, i32, i8, i32, %struct.anon.2, i8, i64, ptr, ptr, i8, i8, i8 }
%struct.X11_ClipboardData = type { ptr, ptr, ptr, i64, i32 }
%struct.X11_SettingsData = type { ptr }
%struct.anon.1 = type { i64, i64, i64, i64, i64, i64, i64, i64, i64, i64, i64, i64, i64, i64, i64, i64, i64, i64, i64, i64, i64, i64, i64, i64, i64, i64, i64, i64, i64, i64, i64, i64, i64, i64, i64, i64, i64, i64, i64, i64, i64, i64, i64, i64, i64, i64, i64, i64, i64, i64, i64, i64, i64 }
%struct.SDL_Point = type { i32, i32 }
%struct.anon.2 = type { ptr, i32, i32, i32, i16, i32, i32 }
%struct.SDL_Window = type { i32, ptr, ptr, i32, i32, i32, i32, i32, i32, i32, i32, float, float, i32, i32, i64, i64, float, i8, i8, i32, i32, %struct.SDL_Rect, %struct.SDL_Rect, %struct.SDL_Rect, i8, i8, i8, %struct.SDL_DisplayMode, %struct.SDL_DisplayMode, %struct.SDL_HDROutputProperties, float, ptr, i8, i8, i8, i8, i8, i8, i8, i8, i8, i32, i32, i32, i32, %struct.SDL_Rect, i32, i8, %struct.SDL_Rect, i32, %struct.SDL_Rect, ptr, ptr, i32, float, i32, i32, ptr, ptr, ptr, ptr, ptr, ptr, ptr, ptr, ptr }
%struct.SDL_DisplayMode = type { i32, i32, i32, i32, float, float, i32, i32, ptr }
%struct.SDL_HDROutputProperties = type { float, float }
%struct.SDL_WindowData = type { ptr, i64, ptr, i64, i8, %struct.XShmSegmentInfo, ptr, ptr, ptr, i8, i32, i32, i32, i32, i8, i8, i8, i64, i32, i64, i8, %struct.SDL_Point, %struct.XConfigureEvent, %struct.XConfigureEvent, ptr, i64, i64, i64, i8, i64, ptr, i8, [4 x i64], %struct.SDL_Rect, i64, %struct._XSyncValue, i8, %struct.SDL_Rect, %struct.SDL_DisplayMode, i32, i32, i8, i8, i8, i8, i8, i8, i8, i8, i32, %struct.XPoint, ptr, ptr, i32, i32, i8 }
%struct.XShmSegmentInfo = type { i64, i32, ptr, i32 }
%struct.XConfigureEvent = type { i32, i64, i32, ptr, i64, i64, i32, i32, i32, i32, i32, i64, i32 }
%struct._XSyncValue = type { i32, i32 }
%struct.XPoint = type { i16, i16 }

@xinput2_initialized = internal global i8 0, align 1
@X11_XISelectEvents = external global ptr, align 8
@.str.2 = private unnamed_addr constant [40 x i8] c"Could not enable XInput2 event handling\00", align 1

; Function Attrs: nounwind uwtable
define hidden zeroext i1 @X11_Xinput2IsInitialized() #0 {
  %1 = load i8, ptr @xinput2_initialized, align 1, !range !3, !noundef !4
  %2 = trunc i8 %1 to i1
  ret i1 %2
}

; Function Attrs: nounwind uwtable
define hidden zeroext i1 @X11_Xinput2SelectMouseAndKeyboard(ptr noundef %0, ptr noundef %1) #0 {
  %3 = alloca i1, align 1
  %4 = alloca ptr, align 8
  %5 = alloca ptr, align 8
  %6 = alloca ptr, align 8
  %7 = alloca ptr, align 8
  %8 = alloca %struct.XIEventMask, align 8
  %9 = alloca [4 x i8], align 1
  %10 = alloca i32, align 4
  store ptr %0, ptr %4, align 8
  store ptr %1, ptr %5, align 8
  call void @llvm.lifetime.start.p0(i64 8, ptr %6) #6
  %11 = load ptr, ptr %5, align 8
  %12 = getelementptr inbounds nuw %struct.SDL_Window, ptr %11, i32 0, i32 59
  %13 = load ptr, ptr %12, align 8
  store ptr %13, ptr %6, align 8
  call void @llvm.lifetime.start.p0(i64 8, ptr %7) #6
  %14 = load ptr, ptr %4, align 8
  %15 = getelementptr inbounds nuw %struct.SDL_VideoDevice, ptr %14, i32 0, i32 128
  %16 = load ptr, ptr %15, align 8
  store ptr %16, ptr %7, align 8
  %17 = call zeroext i1 @X11_Xinput2IsInitialized()
  br i1 %17, label %18, label %88

18:                                               ; preds = %2
  call void @llvm.lifetime.start.p0(i64 16, ptr %8) #6
  call void @llvm.lifetime.start.p0(i64 4, ptr %9) #6
  call void @llvm.memset.p0.i64(ptr align 1 %9, i8 0, i64 4, i1 false)
  %19 = getelementptr inbounds nuw %struct.XIEventMask, ptr %8, i32 0, i32 1
  store i32 4, ptr %19, align 4
  %20 = getelementptr inbounds [4 x i8], ptr %9, i64 0, i64 0
  %21 = getelementptr inbounds nuw %struct.XIEventMask, ptr %8, i32 0, i32 2
  store ptr %20, ptr %21, align 8
  %22 = getelementptr inbounds nuw %struct.XIEventMask, ptr %8, i32 0, i32 0
  store i32 0, ptr %22, align 8
  %23 = getelementptr inbounds [4 x i8], ptr %9, i64 0, i64 0
  %24 = getelementptr inbounds i8, ptr %23, i64 0
  %25 = load i8, ptr %24, align 1
  %26 = zext i8 %25 to i32
  %27 = or i32 %26, 16
  %28 = trunc i32 %27 to i8
  store i8 %28, ptr %24, align 1
  %29 = getelementptr inbounds [4 x i8], ptr %9, i64 0, i64 0
  %30 = getelementptr inbounds i8, ptr %29, i64 0
  %31 = load i8, ptr %30, align 1
  %32 = zext i8 %31 to i32
  %33 = or i32 %32, 32
  %34 = trunc i32 %33 to i8
  store i8 %34, ptr %30, align 1
  %35 = getelementptr inbounds [4 x i8], ptr %9, i64 0, i64 0
  %36 = getelementptr inbounds i8, ptr %35, i64 0
  %37 = load i8, ptr %36, align 1
  %38 = zext i8 %37 to i32
  %39 = or i32 %38, 64
  %40 = trunc i32 %39 to i8
  store i8 %40, ptr %36, align 1
  %41 = load ptr, ptr %6, align 8
  %42 = getelementptr inbounds nuw %struct.SDL_WindowData, ptr %41, i32 0, i32 14
  store i8 1, ptr %42, align 4
  %43 = getelementptr inbounds [4 x i8], ptr %9, i64 0, i64 0
  %44 = getelementptr inbounds i8, ptr %43, i64 0
  %45 = load i8, ptr %44, align 1
  %46 = zext i8 %45 to i32
  %47 = or i32 %46, 128
  %48 = trunc i32 %47 to i8
  store i8 %48, ptr %44, align 1
  %49 = getelementptr inbounds [4 x i8], ptr %9, i64 0, i64 0
  %50 = getelementptr inbounds i8, ptr %49, i64 1
  %51 = load i8, ptr %50, align 1
  %52 = zext i8 %51 to i32
  %53 = or i32 %52, 1
  %54 = trunc i32 %53 to i8
  store i8 %54, ptr %50, align 1
  %55 = getelementptr inbounds [4 x i8], ptr %9, i64 0, i64 0
  %56 = getelementptr inbounds i8, ptr %55, i64 0
  %57 = load i8, ptr %56, align 1
  %58 = zext i8 %57 to i32
  %59 = or i32 %58, 2
  %60 = trunc i32 %59 to i8
  store i8 %60, ptr %56, align 1
  %61 = getelementptr inbounds [4 x i8], ptr %9, i64 0, i64 0
  %62 = getelementptr inbounds i8, ptr %61, i64 1
  %63 = load i8, ptr %62, align 1
  %64 = zext i8 %63 to i32
  %65 = or i32 %64, 8
  %66 = trunc i32 %65 to i8
  store i8 %66, ptr %62, align 1
  %67 = getelementptr inbounds [4 x i8], ptr %9, i64 0, i64 0
  %68 = getelementptr inbounds i8, ptr %67, i64 1
  %69 = load i8, ptr %68, align 1
  %70 = zext i8 %69 to i32
  %71 = or i32 %70, 16
  %72 = trunc i32 %71 to i8
  store i8 %72, ptr %68, align 1
  %73 = load ptr, ptr @X11_XISelectEvents, align 8
  %74 = load ptr, ptr %7, align 8
  %75 = getelementptr inbounds nuw %struct.SDL_VideoData, ptr %74, i32 0, i32 0
  %76 = load ptr, ptr %75, align 8
  %77 = load ptr, ptr %6, align 8
  %78 = getelementptr inbounds nuw %struct.SDL_WindowData, ptr %77, i32 0, i32 1
  %79 = load i64, ptr %78, align 8
  %80 = call i32 %73(ptr noundef %76, i64 noundef %79, ptr noundef %8, i32 noundef 1)
  %81 = icmp ne i32 %80, 0
  br i1 %81, label %82, label %87

82:                                               ; preds = %18
  call void (i32, ptr, ...) @SDL_LogWarn_REAL(i32 noundef 7, ptr noundef @.str.2)
  %83 = load ptr, ptr %6, align 8
  %84 = getelementptr inbounds nuw %struct.SDL_WindowData, ptr %83, i32 0, i32 15
  store i8 0, ptr %84, align 1
  %85 = load ptr, ptr %6, align 8
  %86 = getelementptr inbounds nuw %struct.SDL_WindowData, ptr %85, i32 0, i32 14
  store i8 0, ptr %86, align 4
  br label %87

87:                                               ; preds = %82, %18
  call void @llvm.lifetime.end.p0(i64 4, ptr %9) #6
  call void @llvm.lifetime.end.p0(i64 16, ptr %8) #6
  br label %88

88:                                               ; preds = %87, %2
  %89 = load ptr, ptr %6, align 8
  %90 = getelementptr inbounds nuw %struct.SDL_WindowData, ptr %89, i32 0, i32 15
  %91 = load i8, ptr %90, align 1, !range !3, !noundef !4
  %92 = trunc i8 %91 to i1
  br i1 %92, label %98, label %93

93:                                               ; preds = %88
  %94 = load ptr, ptr %6, align 8
  %95 = getelementptr inbounds nuw %struct.SDL_WindowData, ptr %94, i32 0, i32 14
  %96 = load i8, ptr %95, align 4, !range !3, !noundef !4
  %97 = trunc i8 %96 to i1
  br i1 %97, label %98, label %99

98:                                               ; preds = %93, %88
  store i1 true, ptr %3, align 1
  store i32 1, ptr %10, align 4
  br label %100

99:                                               ; preds = %93
  store i1 false, ptr %3, align 1
  store i32 1, ptr %10, align 4
  br label %100

100:                                              ; preds = %99, %98
  call void @llvm.lifetime.end.p0(i64 8, ptr %7) #6
  call void @llvm.lifetime.end.p0(i64 8, ptr %6) #6
  %101 = load i1, ptr %3, align 1
  ret i1 %101
}