; Function Attrs: nounwind uwtable
define hidden zeroext i1 @X11_Xinput2SelectMouseAndKeyboard(ptr noundef readonly captures(none) %0, ptr noundef readonly captures(none) %1) local_unnamed_addr #0 {
  %3 = alloca %struct.XIEventMask, align 8
  %4 = alloca [4 x i8], align 4
  %5 = getelementptr inbounds nuw i8, ptr %1, i64 392
  %6 = load ptr, ptr %5, align 8
  %.b1.i = load i1, ptr @xinput2_initialized, align 1
  br i1 %.b1.i, label %7, label %21

7:                                                ; preds = %2
  %8 = getelementptr inbounds nuw i8, ptr %0, i64 1656
  %9 = load ptr, ptr %8, align 8
  call void @llvm.lifetime.start.p0(i64 16, ptr nonnull %3) #8
  call void @llvm.lifetime.start.p0(i64 4, ptr nonnull %4) #8
  store i32 6642, ptr %4, align 4
  %10 = getelementptr inbounds nuw i8, ptr %3, i64 4
  store i32 4, ptr %10, align 4
  %11 = getelementptr inbounds nuw i8, ptr %3, i64 8
  store ptr %4, ptr %11, align 8
  store i32 0, ptr %3, align 8
  %12 = getelementptr inbounds nuw i8, ptr %6, i64 116
  store i8 1, ptr %12, align 4
  %13 = load ptr, ptr @X11_XISelectEvents, align 8
  %14 = load ptr, ptr %9, align 8
  %15 = getelementptr inbounds nuw i8, ptr %6, i64 8
  %16 = load i64, ptr %15, align 8
  %17 = call i32 %13(ptr noundef %14, i64 noundef %16, ptr noundef nonnull %3, i32 noundef 1) #8
  %.not = icmp eq i32 %17, 0
  br i1 %.not, label %20, label %18

18:                                               ; preds = %7
  call void (i32, ptr, ...) @SDL_LogWarn_REAL(i32 noundef 7, ptr noundef nonnull @.str.2) #8
  %19 = getelementptr inbounds nuw i8, ptr %6, i64 117
  store i8 0, ptr %19, align 1
  store i8 0, ptr %12, align 4
  br label %20

20:                                               ; preds = %18, %7
  call void @llvm.lifetime.end.p0(i64 4, ptr nonnull %4) #8
  call void @llvm.lifetime.end.p0(i64 16, ptr nonnull %3) #8
  br label %21

21:                                               ; preds = %20, %2
  %22 = getelementptr inbounds nuw i8, ptr %6, i64 117
  %23 = load i8, ptr %22, align 1, !range !3, !noundef !15
  %24 = trunc nuw i8 %23 to i1
  br i1 %24, label %29, label %25

25:                                               ; preds = %21
  %26 = getelementptr inbounds nuw i8, ptr %6, i64 116
  %27 = load i8, ptr %26, align 4, !range !3, !noundef !15
  %28 = trunc nuw i8 %27 to i1
  br label %29

29:                                               ; preds = %25, %21
  %.0 = phi i1 [ true, %21 ], [ %28, %25 ]
  ret i1 %.0
}